	.file	"fileHandling.cpp"
	.text
	.local	_ZStL8__ioinit
	.comm	_ZStL8__ioinit,1,1
	.section	.rodata
.LC0:
	.string	"abc.txt"
.LC1:
	.string	"copy_abc.txt"
.LC2:
	.string	"File copied successfully."
.LC3:
	.string	"Failed to open the file."
	.text
	.globl	main
	.type	main, @function
main:
.LFB1863:
	.cfi_startproc
	.cfi_personality 0x9b,DW.ref.__gxx_personality_v0
	.cfi_lsda 0x1b,.LLSDA1863
	endbr64
	pushq	%rbp
	.cfi_def_cfa_offset 16
	.cfi_offset 6, -16
	movq	%rsp, %rbp
	.cfi_def_cfa_register 6
	pushq	%rbx
	subq	$1064, %rsp
	.cfi_offset 3, -24
	movq	%fs:40, %rax
	movq	%rax, -24(%rbp)
	xorl	%eax, %eax
	leaq	-544(%rbp), %rax
	movl	$8, %edx
	leaq	.LC0(%rip), %rcx
	movq	%rcx, %rsi
	movq	%rax, %rdi
.LEHB0:
	call	_ZNSt14basic_ifstreamIcSt11char_traitsIcEEC1EPKcSt13_Ios_Openmode@PLT
.LEHE0:
	leaq	-1056(%rbp), %rax
	movl	$16, %edx
	leaq	.LC1(%rip), %rcx
	movq	%rcx, %rsi
	movq	%rax, %rdi
.LEHB1:
	call	_ZNSt14basic_ofstreamIcSt11char_traitsIcEEC1EPKcSt13_Ios_Openmode@PLT
.LEHE1:
	leaq	-544(%rbp), %rax
	movq	%rax, %rdi
.LEHB2:
	call	_ZNSt14basic_ifstreamIcSt11char_traitsIcEE7is_openEv@PLT
	testb	%al, %al
	je	.L2
	leaq	-1056(%rbp), %rax
	movq	%rax, %rdi
	call	_ZNSt14basic_ofstreamIcSt11char_traitsIcEE7is_openEv@PLT
	testb	%al, %al
	je	.L2
	movl	$1, %eax
	jmp	.L3
.L2:
	movl	$0, %eax
.L3:
	testb	%al, %al
	je	.L4
	jmp	.L5
.L6:
	movzbl	-1057(%rbp), %eax
	movsbl	%al, %edx
	leaq	-1056(%rbp), %rax
	movl	%edx, %esi
	movq	%rax, %rdi
	call	_ZNSo3putEc@PLT
.L5:
	leaq	-1057(%rbp), %rdx
	leaq	-544(%rbp), %rax
	movq	%rdx, %rsi
	movq	%rax, %rdi
	call	_ZNSi3getERc@PLT
	movq	(%rax), %rdx
	subq	$24, %rdx
	movq	(%rdx), %rdx
	addq	%rdx, %rax
	movq	%rax, %rdi
	call	_ZNKSt9basic_iosIcSt11char_traitsIcEEcvbEv@PLT
	testb	%al, %al
	jne	.L6
	leaq	.LC2(%rip), %rax
	movq	%rax, %rsi
	leaq	_ZSt4cout(%rip), %rax
	movq	%rax, %rdi
	call	_ZStlsISt11char_traitsIcEERSt13basic_ostreamIcT_ES5_PKc@PLT
	movq	_ZSt4endlIcSt11char_traitsIcEERSt13basic_ostreamIT_T0_ES6_@GOTPCREL(%rip), %rdx
	movq	%rdx, %rsi
	movq	%rax, %rdi
	call	_ZNSolsEPFRSoS_E@PLT
	leaq	-544(%rbp), %rax
	movq	%rax, %rdi
	call	_ZNSt14basic_ifstreamIcSt11char_traitsIcEE5closeEv@PLT
	leaq	-1056(%rbp), %rax
	movq	%rax, %rdi
	call	_ZNSt14basic_ofstreamIcSt11char_traitsIcEE5closeEv@PLT
	jmp	.L7
.L4:
	leaq	.LC3(%rip), %rax
	movq	%rax, %rsi
	leaq	_ZSt4cout(%rip), %rax
	movq	%rax, %rdi
	call	_ZStlsISt11char_traitsIcEERSt13basic_ostreamIcT_ES5_PKc@PLT
	movq	_ZSt4endlIcSt11char_traitsIcEERSt13basic_ostreamIT_T0_ES6_@GOTPCREL(%rip), %rdx
	movq	%rdx, %rsi
	movq	%rax, %rdi
	call	_ZNSolsEPFRSoS_E@PLT
.LEHE2:
.L7:
	movl	$0, %ebx
	leaq	-1056(%rbp), %rax
	movq	%rax, %rdi
	call	_ZNSt14basic_ofstreamIcSt11char_traitsIcEED1Ev@PLT
	leaq	-544(%rbp), %rax
	movq	%rax, %rdi
	call	_ZNSt14basic_ifstreamIcSt11char_traitsIcEED1Ev@PLT
	movl	%ebx, %eax
	movq	-24(%rbp), %rdx
	subq	%fs:40, %rdx
	je	.L11
	jmp	.L14
.L13:
	endbr64
	movq	%rax, %rbx
	leaq	-1056(%rbp), %rax
	movq	%rax, %rdi
	call	_ZNSt14basic_ofstreamIcSt11char_traitsIcEED1Ev@PLT
	jmp	.L10
.L12:
	endbr64
	movq	%rax, %rbx
.L10:
	leaq	-544(%rbp), %rax
	movq	%rax, %rdi
	call	_ZNSt14basic_ifstreamIcSt11char_traitsIcEED1Ev@PLT
	movq	%rbx, %rax
	movq	%rax, %rdi
.LEHB3:
	call	_Unwind_Resume@PLT
.LEHE3:
.L14:
	call	__stack_chk_fail@PLT
.L11:
	movq	-8(%rbp), %rbx
	leave
	.cfi_def_cfa 7, 8
	ret
	.cfi_endproc
.LFE1863:
	.globl	__gxx_personality_v0
	.section	.gcc_except_table,"a",@progbits
.LLSDA1863:
	.byte	0xff
	.byte	0xff
	.byte	0x1
	.uleb128 .LLSDACSE1863-.LLSDACSB1863
.LLSDACSB1863:
	.uleb128 .LEHB0-.LFB1863
	.uleb128 .LEHE0-.LEHB0
	.uleb128 0
	.uleb128 0
	.uleb128 .LEHB1-.LFB1863
	.uleb128 .LEHE1-.LEHB1
	.uleb128 .L12-.LFB1863
	.uleb128 0
	.uleb128 .LEHB2-.LFB1863
	.uleb128 .LEHE2-.LEHB2
	.uleb128 .L13-.LFB1863
	.uleb128 0
	.uleb128 .LEHB3-.LFB1863
	.uleb128 .LEHE3-.LEHB3
	.uleb128 0
	.uleb128 0
.LLSDACSE1863:
	.text
	.size	main, .-main
	.type	_Z41__static_initialization_and_destruction_0ii, @function
_Z41__static_initialization_and_destruction_0ii:
.LFB2436:
	.cfi_startproc
	endbr64
	pushq	%rbp
	.cfi_def_cfa_offset 16
	.cfi_offset 6, -16
	movq	%rsp, %rbp
	.cfi_def_cfa_register 6
	subq	$16, %rsp
	movl	%edi, -4(%rbp)
	movl	%esi, -8(%rbp)
	cmpl	$1, -4(%rbp)
	jne	.L17
	cmpl	$65535, -8(%rbp)
	jne	.L17
	leaq	_ZStL8__ioinit(%rip), %rax
	movq	%rax, %rdi
	call	_ZNSt8ios_base4InitC1Ev@PLT
	leaq	__dso_handle(%rip), %rax
	movq	%rax, %rdx
	leaq	_ZStL8__ioinit(%rip), %rax
	movq	%rax, %rsi
	movq	_ZNSt8ios_base4InitD1Ev@GOTPCREL(%rip), %rax
	movq	%rax, %rdi
	call	__cxa_atexit@PLT
.L17:
	nop
	leave
	.cfi_def_cfa 7, 8
	ret
	.cfi_endproc
.LFE2436:
	.size	_Z41__static_initialization_and_destruction_0ii, .-_Z41__static_initialization_and_destruction_0ii
	.type	_GLOBAL__sub_I_main, @function
_GLOBAL__sub_I_main:
.LFB2437:
	.cfi_startproc
	endbr64
	pushq	%rbp
	.cfi_def_cfa_offset 16
	.cfi_offset 6, -16
	movq	%rsp, %rbp
	.cfi_def_cfa_register 6
	movl	$65535, %esi
	movl	$1, %edi
	call	_Z41__static_initialization_and_destruction_0ii
	popq	%rbp
	.cfi_def_cfa 7, 8
	ret
	.cfi_endproc
.LFE2437:
	.size	_GLOBAL__sub_I_main, .-_GLOBAL__sub_I_main
	.section	.init_array,"aw"
	.align 8
	.quad	_GLOBAL__sub_I_main
	.hidden	DW.ref.__gxx_personality_v0
	.weak	DW.ref.__gxx_personality_v0
	.section	.data.rel.local.DW.ref.__gxx_personality_v0,"awG",@progbits,DW.ref.__gxx_personality_v0,comdat
	.align 8
	.type	DW.ref.__gxx_personality_v0, @object
	.size	DW.ref.__gxx_personality_v0, 8
DW.ref.__gxx_personality_v0:
	.quad	__gxx_personality_v0
	.hidden	__dso_handle
	.ident	"GCC: (Ubuntu 11.4.0-1ubuntu1~22.04) 11.4.0"
	.section	.note.GNU-stack,"",@progbits
	.section	.note.gnu.property,"a"
	.align 8
	.long	1f - 0f
	.long	4f - 1f
	.long	5
0:
	.string	"GNU"
1:
	.align 8
	.long	0xc0000002
	.long	3f - 2f
2:
	.long	0x3
3:
	.align 8
4:
